target datalayout = "e-m:e-p270:32:32-p271:32:32-p272:64:64-i64:64-i128:128-f80:128-n8:16:32:64-S128"
target triple = "x86_64-pc-linux-gnu"

%"class.duckdb_re2::PODArray" = type { %"class.std::unique_ptr" }
%"class.std::unique_ptr" = type { %"struct.std::__uniq_ptr_data" }
%"struct.std::__uniq_ptr_data" = type { %"class.std::__uniq_ptr_impl" }
%"class.std::__uniq_ptr_impl" = type { %"class.std::tuple" }
%"class.std::tuple" = type { %"struct.std::_Tuple_impl" }
%"struct.std::_Tuple_impl" = type { %"struct.std::_Tuple_impl.0", %"struct.std::_Head_base.1" }
%"struct.std::_Tuple_impl.0" = type { %"struct.std::_Head_base" }
%"struct.std::_Head_base" = type { %"struct.duckdb_re2::PODArray<int>::Deleter" }
%"struct.duckdb_re2::PODArray<int>::Deleter" = type { i32 }
%"struct.std::_Head_base.1" = type { ptr }
%"class.duckdb_re2::DFA" = type { ptr, i32, i8, %"class.duckdb_re2::Mutex", ptr, ptr, %"class.duckdb_re2::PODArray", %"class.duckdb_re2::Mutex", i64, i64, %"class.std::unordered_set", [8 x %"struct.duckdb_re2::DFA::StartInfo"] }
%"class.duckdb_re2::Mutex" = type { %union.pthread_rwlock_t }
%union.pthread_rwlock_t = type { %struct.__pthread_rwlock_arch_t }
%struct.__pthread_rwlock_arch_t = type { i32, i32, i32, i32, i32, i32, i32, i32, i8, [7 x i8], i64, i32 }
%"class.std::unordered_set" = type { %"class.std::_Hashtable" }
%"class.std::_Hashtable" = type { ptr, i64, %"struct.std::__detail::_Hash_node_base", i64, %"struct.std::__detail::_Prime_rehash_policy", ptr }
%"struct.std::__detail::_Hash_node_base" = type { ptr }
%"struct.std::__detail::_Prime_rehash_policy" = type { float, i64 }
%"struct.duckdb_re2::DFA::StartInfo" = type { %"struct.std::atomic" }
%"struct.std::atomic" = type { %"struct.std::__atomic_base" }
%"struct.std::__atomic_base" = type { ptr }
%"class.duckdb_re2::DFA::RWLocker" = type <{ ptr, i8, [7 x i8] }>
%"struct.duckdb_re2::DFA::SearchParams" = type { %"class.duckdb_re2::StringPiece", %"class.duckdb_re2::StringPiece", i8, i8, i8, i8, ptr, ptr, i8, ptr, ptr }
%"class.duckdb_re2::StringPiece" = type { ptr, i64 }

@_ZN10duckdb_re23DFA8RWLockerC1EPNS_5MutexE = hidden unnamed_addr alias void (ptr, ptr), ptr @_ZN10duckdb_re23DFA8RWLockerC2EPNS_5MutexE
@_ZN10duckdb_re23DFA8RWLockerD1Ev = hidden unnamed_addr alias void (ptr), ptr @_ZN10duckdb_re23DFA8RWLockerD2Ev

; Function Attrs: mustprogress uwtable
define hidden noundef zeroext i1 @_ZN10duckdb_re23DFA14FastSearchLoopEPNS0_12SearchParamsE(ptr noundef nonnull align 8 dereferenceable(296) %0, ptr noundef %1) #1 align 2 {
  %3 = alloca ptr, align 8
  %4 = alloca ptr, align 8
  %5 = alloca i32, align 4
  store ptr %0, ptr %3, align 8, !tbaa !9
  store ptr %1, ptr %4, align 8, !tbaa !199
  %6 = load ptr, ptr %3, align 8
  call void @llvm.lifetime.start.p0(i64 4, ptr %5) #17
  %7 = load ptr, ptr %4, align 8, !tbaa !199
  %8 = getelementptr inbounds nuw %"struct.duckdb_re2::DFA::SearchParams", ptr %7, i32 0, i32 3
  %9 = load i8, ptr %8, align 1, !tbaa !240, !range !7, !noundef !8
  %10 = trunc i8 %9 to i1
  %11 = zext i1 %10 to i32
  %12 = mul nsw i32 4, %11
  %13 = load ptr, ptr %4, align 8, !tbaa !199
  %14 = getelementptr inbounds nuw %"struct.duckdb_re2::DFA::SearchParams", ptr %13, i32 0, i32 4
  %15 = load i8, ptr %14, align 2, !tbaa !241, !range !7, !noundef !8
  %16 = trunc i8 %15 to i1
  %17 = zext i1 %16 to i32
  %18 = mul nsw i32 2, %17
  %19 = add nsw i32 %12, %18
  %20 = load ptr, ptr %4, align 8, !tbaa !199
  %21 = getelementptr inbounds nuw %"struct.duckdb_re2::DFA::SearchParams", ptr %20, i32 0, i32 5
  %22 = load i8, ptr %21, align 1, !tbaa !242, !range !7, !noundef !8
  %23 = trunc i8 %22 to i1
  %24 = zext i1 %23 to i32
  %25 = mul nsw i32 1, %24
  %26 = add nsw i32 %19, %25
  store i32 %26, ptr %5, align 4, !tbaa !46
  %27 = load i32, ptr %5, align 4, !tbaa !46
  %28 = sext i32 %27 to i64
  %29 = getelementptr inbounds [8 x { i64, i64 }], ptr @_ZZN10duckdb_re23DFA14FastSearchLoopEPNS0_12SearchParamsEE8Searches, i64 0, i64 %28
  %30 = load { i64, i64 }, ptr %29, align 16, !tbaa !130
  %31 = extractvalue { i64, i64 } %30, 1
  %32 = getelementptr inbounds i8, ptr %6, i64 %31
  %33 = extractvalue { i64, i64 } %30, 0
  %34 = and i64 %33, 1
  %35 = icmp ne i64 %34, 0
  br i1 %35, label %36, label %41

36:                                               ; preds = %2
  %37 = load ptr, ptr %32, align 8, !tbaa !151
  %38 = sub i64 %33, 1
  %39 = getelementptr i8, ptr %37, i64 %38, !nosanitize !8
  %40 = load ptr, ptr %39, align 8, !nosanitize !8
  br label %43

41:                                               ; preds = %2
  %42 = inttoptr i64 %33 to ptr
  br label %43

43:                                               ; preds = %41, %36
  %44 = phi ptr [ %40, %36 ], [ %42, %41 ]
  %45 = load ptr, ptr %4, align 8, !tbaa !199
  %46 = call noundef zeroext i1 %44(ptr noundef nonnull align 8 dereferenceable(296) %32, ptr noundef %45)
  call void @llvm.lifetime.end.p0(i64 4, ptr %5) #17
  ret i1 %46
}

; Function Attrs: mustprogress nounwind uwtable
define linkonce_odr hidden noundef i64 @_ZNK10duckdb_re211StringPiece4sizeEv(ptr noundef nonnull align 8 dereferenceable(16) %0) #0 comdat align 2 {
  %2 = alloca ptr, align 8
  store ptr %0, ptr %2, align 8, !tbaa !243
  %3 = load ptr, ptr %2, align 8
  %4 = getelementptr inbounds nuw %"class.duckdb_re2::StringPiece", ptr %3, i32 0, i32 1
  %5 = load i64, ptr %4, align 8, !tbaa !251
  ret i64 %5
}

; Function Attrs: mustprogress nounwind uwtable
define linkonce_odr hidden noundef ptr @_ZNK10duckdb_re211StringPiece4dataEv(ptr noundef nonnull align 8 dereferenceable(16) %0) #0 comdat align 2 {
  %2 = alloca ptr, align 8
  store ptr %0, ptr %2, align 8, !tbaa !243
  %3 = load ptr, ptr %2, align 8
  %4 = getelementptr inbounds nuw %"class.duckdb_re2::StringPiece", ptr %3, i32 0, i32 0
  %5 = load ptr, ptr %4, align 8, !tbaa !250
  ret ptr %5
}

; Function Attrs: mustprogress nounwind uwtable
define linkonce_odr hidden void @_ZN10duckdb_re23DFA12SearchParamsC2ERKNS_11StringPieceES4_PNS0_8RWLockerE(ptr noundef nonnull align 8 dereferenceable(80) %0, ptr noundef nonnull align 8 dereferenceable(16) %1, ptr noundef nonnull align 8 dereferenceable(16) %2, ptr noundef %3) unnamed_addr #0 comdat align 2 {
  %5 = alloca ptr, align 8
  %6 = alloca ptr, align 8
  %7 = alloca ptr, align 8
  %8 = alloca ptr, align 8
  store ptr %0, ptr %5, align 8, !tbaa !199
  store ptr %1, ptr %6, align 8, !tbaa !243
  store ptr %2, ptr %7, align 8, !tbaa !243
  store ptr %3, ptr %8, align 8, !tbaa !181
  %9 = load ptr, ptr %5, align 8
  %10 = getelementptr inbounds nuw %"struct.duckdb_re2::DFA::SearchParams", ptr %9, i32 0, i32 0
  %11 = load ptr, ptr %6, align 8, !tbaa !243
  call void @llvm.memcpy.p0.p0.i64(ptr align 8 %10, ptr align 8 %11, i64 16, i1 false), !tbaa.struct !249
  %12 = getelementptr inbounds nuw %"struct.duckdb_re2::DFA::SearchParams", ptr %9, i32 0, i32 1
  %13 = load ptr, ptr %7, align 8, !tbaa !243
  call void @llvm.memcpy.p0.p0.i64(ptr align 8 %12, ptr align 8 %13, i64 16, i1 false), !tbaa.struct !249
  %14 = getelementptr inbounds nuw %"struct.duckdb_re2::DFA::SearchParams", ptr %9, i32 0, i32 2
  store i8 0, ptr %14, align 8, !tbaa !245
  %15 = getelementptr inbounds nuw %"struct.duckdb_re2::DFA::SearchParams", ptr %9, i32 0, i32 3
  store i8 0, ptr %15, align 1, !tbaa !240
  %16 = getelementptr inbounds nuw %"struct.duckdb_re2::DFA::SearchParams", ptr %9, i32 0, i32 4
  store i8 0, ptr %16, align 2, !tbaa !241
  %17 = getelementptr inbounds nuw %"struct.duckdb_re2::DFA::SearchParams", ptr %9, i32 0, i32 5
  store i8 0, ptr %17, align 1, !tbaa !242
  %18 = getelementptr inbounds nuw %"struct.duckdb_re2::DFA::SearchParams", ptr %9, i32 0, i32 6
  store ptr null, ptr %18, align 8, !tbaa !201
  %19 = getelementptr inbounds nuw %"struct.duckdb_re2::DFA::SearchParams", ptr %9, i32 0, i32 7
  %20 = load ptr, ptr %8, align 8, !tbaa !181
  store ptr %20, ptr %19, align 8, !tbaa !207
  %21 = getelementptr inbounds nuw %"struct.duckdb_re2::DFA::SearchParams", ptr %9, i32 0, i32 8
  store i8 0, ptr %21, align 8, !tbaa !206
  %22 = getelementptr inbounds nuw %"struct.duckdb_re2::DFA::SearchParams", ptr %9, i32 0, i32 9
  store ptr null, ptr %22, align 8, !tbaa !208
  %23 = getelementptr inbounds nuw %"struct.duckdb_re2::DFA::SearchParams", ptr %9, i32 0, i32 10
  store ptr null, ptr %23, align 8, !tbaa !204
  ret void
}

; Function Attrs: mustprogress nounwind uwtable
define linkonce_odr hidden noundef zeroext i1 @_ZNK10duckdb_re23DFA2okEv(ptr noundef nonnull align 8 dereferenceable(296) %0) #0 comdat align 2 {
  %2 = alloca ptr, align 8
  store ptr %0, ptr %2, align 8, !tbaa !9
  %3 = load ptr, ptr %2, align 8
  %4 = getelementptr inbounds nuw %"class.duckdb_re2::DFA", ptr %3, i32 0, i32 2
  %5 = load i8, ptr %4, align 4, !tbaa !42, !range !7, !noundef !8
  %6 = trunc i8 %5 to i1
  %7 = xor i1 %6, true
  ret i1 %7
}

; Function Attrs: mustprogress uwtable
define hidden noundef zeroext i1 @_ZN10duckdb_re23DFA6SearchERKNS_11StringPieceES3_bbbPbPPKcPNS_10SparseSetTIvEE(ptr noundef nonnull align 8 dereferenceable(296) %0, ptr noundef nonnull align 8 dereferenceable(16) %1, ptr noundef nonnull align 8 dereferenceable(16) %2, i1 noundef zeroext %3, i1 noundef zeroext %4, i1 noundef zeroext %5, ptr noundef %6, ptr noundef %7, ptr noundef %8) #1 align 2 personality ptr @__gxx_personality_v0 {
  %10 = alloca i1, align 1
  %11 = alloca ptr, align 8
  %12 = alloca ptr, align 8
  %13 = alloca ptr, align 8
  %14 = alloca i8, align 1
  %15 = alloca i8, align 1
  %16 = alloca i8, align 1
  %17 = alloca ptr, align 8
  %18 = alloca ptr, align 8
  %19 = alloca ptr, align 8
  %20 = alloca %"class.duckdb_re2::DFA::RWLocker", align 8
  %21 = alloca %"struct.duckdb_re2::DFA::SearchParams", align 8
  %22 = alloca ptr, align 8
  %23 = alloca i32, align 4
  %24 = alloca i32, align 4
  %25 = alloca i8, align 1
  store ptr %0, ptr %11, align 8, !tbaa !9
  store ptr %1, ptr %12, align 8, !tbaa !243
  store ptr %2, ptr %13, align 8, !tbaa !243
  %26 = zext i1 %3 to i8
  store i8 %26, ptr %14, align 1, !tbaa !3
  %27 = zext i1 %4 to i8
  store i8 %27, ptr %15, align 1, !tbaa !3
  %28 = zext i1 %5 to i8
  store i8 %28, ptr %16, align 1, !tbaa !3
  store ptr %6, ptr %17, align 8, !tbaa !169
  store ptr %7, ptr %18, align 8, !tbaa !247
  store ptr %8, ptr %19, align 8, !tbaa !103
  %29 = load ptr, ptr %11, align 8
  %30 = load ptr, ptr %18, align 8, !tbaa !247
  store ptr null, ptr %30, align 8, !tbaa !112
  %31 = call noundef zeroext i1 @_ZNK10duckdb_re23DFA2okEv(ptr noundef nonnull align 8 dereferenceable(296) %29)
  br i1 %31, label %34, label %32

32:                                               ; preds = %9
  %33 = load ptr, ptr %17, align 8, !tbaa !169
  store i8 1, ptr %33, align 1, !tbaa !3
  store i1 false, ptr %10, align 1
  br label %116

34:                                               ; preds = %9
  %35 = load ptr, ptr %17, align 8, !tbaa !169
  store i8 0, ptr %35, align 1, !tbaa !3
  call void @llvm.lifetime.start.p0(i64 16, ptr %20) #17
  %36 = getelementptr inbounds nuw %"class.duckdb_re2::DFA", ptr %29, i32 0, i32 7
  call void @_ZN10duckdb_re23DFA8RWLockerC1EPNS_5MutexE(ptr noundef nonnull align 8 dereferenceable(9) %20, ptr noundef %36)
  call void @llvm.lifetime.start.p0(i64 80, ptr %21) #17
  %37 = load ptr, ptr %12, align 8, !tbaa !243
  %38 = load ptr, ptr %13, align 8, !tbaa !243
  invoke void @_ZN10duckdb_re23DFA12SearchParamsC2ERKNS_11StringPieceES4_PNS0_8RWLockerE(ptr noundef nonnull align 8 dereferenceable(80) %21, ptr noundef nonnull align 8 dereferenceable(16) %37, ptr noundef nonnull align 8 dereferenceable(16) %38, ptr noundef %20)
          to label %39 unwind label %58

39:                                               ; preds = %34
  %40 = load i8, ptr %14, align 1, !tbaa !3, !range !7, !noundef !8
  %41 = trunc i8 %40 to i1
  %42 = getelementptr inbounds nuw %"struct.duckdb_re2::DFA::SearchParams", ptr %21, i32 0, i32 2
  %43 = zext i1 %41 to i8
  store i8 %43, ptr %42, align 8, !tbaa !245
  %44 = load i8, ptr %15, align 1, !tbaa !3, !range !7, !noundef !8
  %45 = trunc i8 %44 to i1
  %46 = getelementptr inbounds nuw %"struct.duckdb_re2::DFA::SearchParams", ptr %21, i32 0, i32 4
  %47 = zext i1 %45 to i8
  store i8 %47, ptr %46, align 2, !tbaa !241
  %48 = load i8, ptr %16, align 1, !tbaa !3, !range !7, !noundef !8
  %49 = trunc i8 %48 to i1
  %50 = getelementptr inbounds nuw %"struct.duckdb_re2::DFA::SearchParams", ptr %21, i32 0, i32 5
  %51 = zext i1 %49 to i8
  store i8 %51, ptr %50, align 1, !tbaa !242
  %52 = load ptr, ptr %19, align 8, !tbaa !103
  %53 = getelementptr inbounds nuw %"struct.duckdb_re2::DFA::SearchParams", ptr %21, i32 0, i32 10
  store ptr %52, ptr %53, align 8, !tbaa !204
  %54 = invoke noundef zeroext i1 @_ZN10duckdb_re23DFA13AnalyzeSearchEPNS0_12SearchParamsE(ptr noundef nonnull align 8 dereferenceable(296) %29, ptr noundef %21)
          to label %55 unwind label %58

55:                                               ; preds = %39
  br i1 %54, label %62, label %56

56:                                               ; preds = %55
  %57 = load ptr, ptr %17, align 8, !tbaa !169
  store i8 1, ptr %57, align 1, !tbaa !3
  store i1 false, ptr %10, align 1
  store i32 1, ptr %24, align 4
  br label %114

58:                                               ; preds = %87, %84, %79, %39, %34
  %59 = landingpad { ptr, i32 }
          cleanup
  %60 = extractvalue { ptr, i32 } %59, 0
  store ptr %60, ptr %22, align 8
  %61 = extractvalue { ptr, i32 } %59, 1
  store i32 %61, ptr %23, align 4
  br label %115

62:                                               ; preds = %55
  %63 = getelementptr inbounds nuw %"struct.duckdb_re2::DFA::SearchParams", ptr %21, i32 0, i32 6
  %64 = load ptr, ptr %63, align 8, !tbaa !201
  %65 = icmp eq ptr %64, inttoptr (i64 1 to ptr)
  br i1 %65, label %66, label %67

66:                                               ; preds = %62
  store i1 false, ptr %10, align 1
  store i32 1, ptr %24, align 4
  br label %114

67:                                               ; preds = %62
  %68 = getelementptr inbounds nuw %"struct.duckdb_re2::DFA::SearchParams", ptr %21, i32 0, i32 6
  %69 = load ptr, ptr %68, align 8, !tbaa !201
  %70 = icmp eq ptr %69, inttoptr (i64 2 to ptr)
  br i1 %70, label %71, label %94

71:                                               ; preds = %67
  %72 = load i8, ptr %16, align 1, !tbaa !3, !range !7, !noundef !8
  %73 = trunc i8 %72 to i1
  %74 = zext i1 %73 to i32
  %75 = load i8, ptr %15, align 1, !tbaa !3, !range !7, !noundef !8
  %76 = trunc i8 %75 to i1
  %77 = zext i1 %76 to i32
  %78 = icmp eq i32 %74, %77
  br i1 %78, label %79, label %84

79:                                               ; preds = %71
  %80 = load ptr, ptr %12, align 8, !tbaa !243
  %81 = invoke noundef ptr @_ZNK10duckdb_re211StringPiece4dataEv(ptr noundef nonnull align 8 dereferenceable(16) %80)
          to label %82 unwind label %58

82:                                               ; preds = %79
  %83 = load ptr, ptr %18, align 8, !tbaa !247
  store ptr %81, ptr %83, align 8, !tbaa !112
  br label %93

84:                                               ; preds = %71
  %85 = load ptr, ptr %12, align 8, !tbaa !243
  %86 = invoke noundef ptr @_ZNK10duckdb_re211StringPiece4dataEv(ptr noundef nonnull align 8 dereferenceable(16) %85)
          to label %87 unwind label %58

87:                                               ; preds = %84
  %88 = load ptr, ptr %12, align 8, !tbaa !243
  %89 = invoke noundef i64 @_ZNK10duckdb_re211StringPiece4sizeEv(ptr noundef nonnull align 8 dereferenceable(16) %88)
          to label %90 unwind label %58

90:                                               ; preds = %87
  %91 = getelementptr inbounds nuw i8, ptr %86, i64 %89
  %92 = load ptr, ptr %18, align 8, !tbaa !247
  store ptr %91, ptr %92, align 8, !tbaa !112
  br label %93

93:                                               ; preds = %90, %82
  store i1 true, ptr %10, align 1
  store i32 1, ptr %24, align 4
  br label %114

94:                                               ; preds = %67
  call void @llvm.lifetime.start.p0(i64 1, ptr %25) #17
  %95 = invoke noundef zeroext i1 @_ZN10duckdb_re23DFA14FastSearchLoopEPNS0_12SearchParamsE(ptr noundef nonnull align 8 dereferenceable(296) %29, ptr noundef %21)
          to label %96 unwind label %103

96:                                               ; preds = %94
  %97 = zext i1 %95 to i8
  store i8 %97, ptr %25, align 1, !tbaa !3
  %98 = getelementptr inbounds nuw %"struct.duckdb_re2::DFA::SearchParams", ptr %21, i32 0, i32 8
  %99 = load i8, ptr %98, align 8, !tbaa !206, !range !7, !noundef !8
  %100 = trunc i8 %99 to i1
  br i1 %100, label %101, label %107

101:                                              ; preds = %96
  %102 = load ptr, ptr %17, align 8, !tbaa !169
  store i8 1, ptr %102, align 1, !tbaa !3
  store i1 false, ptr %10, align 1
  store i32 1, ptr %24, align 4
  br label %113

103:                                              ; preds = %94
  %104 = landingpad { ptr, i32 }
          cleanup
  %105 = extractvalue { ptr, i32 } %104, 0
  store ptr %105, ptr %22, align 8
  %106 = extractvalue { ptr, i32 } %104, 1
  store i32 %106, ptr %23, align 4
  call void @llvm.lifetime.end.p0(i64 1, ptr %25) #17
  br label %115

107:                                              ; preds = %96
  %108 = getelementptr inbounds nuw %"struct.duckdb_re2::DFA::SearchParams", ptr %21, i32 0, i32 9
  %109 = load ptr, ptr %108, align 8, !tbaa !208
  %110 = load ptr, ptr %18, align 8, !tbaa !247
  store ptr %109, ptr %110, align 8, !tbaa !112
  %111 = load i8, ptr %25, align 1, !tbaa !3, !range !7, !noundef !8
  %112 = trunc i8 %111 to i1
  store i1 %112, ptr %10, align 1
  store i32 1, ptr %24, align 4
  br label %113

113:                                              ; preds = %107, %101
  call void @llvm.lifetime.end.p0(i64 1, ptr %25) #17
  br label %114

114:                                              ; preds = %113, %93, %66, %56
  call void @llvm.lifetime.end.p0(i64 80, ptr %21) #17
  call void @_ZN10duckdb_re23DFA8RWLockerD1Ev(ptr noundef nonnull align 8 dereferenceable(9) %20) #17
  call void @llvm.lifetime.end.p0(i64 16, ptr %20) #17
  br label %116

115:                                              ; preds = %103, %58
  call void @llvm.lifetime.end.p0(i64 80, ptr %21) #17
  call void @_ZN10duckdb_re23DFA8RWLockerD1Ev(ptr noundef nonnull align 8 dereferenceable(9) %20) #17
  call void @llvm.lifetime.end.p0(i64 16, ptr %20) #17
  br label %118

116:                                              ; preds = %114, %32
  %117 = load i1, ptr %10, align 1
  ret i1 %117

118:                                              ; preds = %115
  %119 = load ptr, ptr %22, align 8
  %120 = load i32, ptr %23, align 4
  %121 = insertvalue { ptr, i32 } poison, ptr %119, 0
  %122 = insertvalue { ptr, i32 } %121, i32 %120, 1
  resume { ptr, i32 } %122
}