; Function Attrs: mustprogress uwtable
define hidden noundef zeroext i1 @_ZN10duckdb_re23DFA6SearchERKNS_11StringPieceES3_bbbPbPPKcPNS_10SparseSetTIvEE(ptr noundef nonnull align 8 dereferenceable(296) %0, ptr noundef nonnull readonly align 8 captures(none) dereferenceable(16) %1, ptr noundef nonnull readonly align 8 captures(none) dereferenceable(16) %2, i1 noundef zeroext %3, i1 noundef zeroext %4, i1 noundef zeroext %5, ptr noundef writeonly captures(none) initializes((0, 1)) %6, ptr noundef writeonly captures(none) initializes((0, 8)) %7, ptr noundef %8) local_unnamed_addr #1 align 2 personality ptr @__gxx_personality_v0 {
  %10 = alloca %"class.duckdb_re2::DFA::RWLocker", align 8
  %11 = alloca %"struct.duckdb_re2::DFA::SearchParams", align 8
  store ptr null, ptr %7, align 8, !tbaa !218
  %12 = getelementptr inbounds nuw i8, ptr %0, i64 12
  %13 = load i8, ptr %12, align 4, !tbaa !35, !range !117, !noundef !118
  %14 = trunc nuw i8 %13 to i1
  br i1 %14, label %15, label %16

15:                                               ; preds = %9
  store i8 1, ptr %6, align 1, !tbaa !3
  br label %80

16:                                               ; preds = %9
  store i8 0, ptr %6, align 1, !tbaa !3
  call void @llvm.lifetime.start.p0(i64 16, ptr nonnull %10) #20
  %17 = getelementptr inbounds nuw i8, ptr %0, i64 104
  store ptr %17, ptr %10, align 8, !tbaa !154
  %18 = getelementptr inbounds nuw i8, ptr %10, i64 8
  store i8 0, ptr %18, align 8, !tbaa !156
  %19 = tail call i32 @pthread_rwlock_rdlock(ptr noundef nonnull align 8 dereferenceable(56) %17) #20
  %.not.i.i = icmp eq i32 %19, 0
  br i1 %.not.i.i, label %_ZN10duckdb_re23DFA8RWLockerC2EPNS_5MutexE.exit, label %20

20:                                               ; preds = %16
  %21 = tail call ptr @__cxa_allocate_exception(i64 16) #20
  invoke void @_ZNSt13runtime_errorC1EPKc(ptr noundef nonnull align 8 dereferenceable(16) %21, ptr noundef nonnull @.str.18)
          to label %22 unwind label %23

22:                                               ; preds = %20
  tail call void @__cxa_throw(ptr nonnull %21, ptr nonnull @_ZTISt13runtime_error, ptr nonnull @_ZNSt13runtime_errorD1Ev) #21
  unreachable

common.resume:                                    ; preds = %79, %23
  %common.resume.op = phi { ptr, i32 } [ %24, %23 ], [ %.pn, %79 ]
  resume { ptr, i32 } %common.resume.op

23:                                               ; preds = %20
  %24 = landingpad { ptr, i32 }
          cleanup
  tail call void @__cxa_free_exception(ptr nonnull %21) #20
  br label %common.resume

_ZN10duckdb_re23DFA8RWLockerC2EPNS_5MutexE.exit:  ; preds = %16
  %25 = zext i1 %3 to i8
  %26 = zext i1 %4 to i8
  %27 = zext i1 %5 to i8
  call void @llvm.lifetime.start.p0(i64 80, ptr nonnull %11) #20
  call void @llvm.memcpy.p0.p0.i64(ptr noundef nonnull align 8 dereferenceable(80) %11, ptr noundef nonnull align 8 dereferenceable(16) %1, i64 16, i1 false), !tbaa.struct !219
  %28 = getelementptr inbounds nuw i8, ptr %11, i64 16
  call void @llvm.memcpy.p0.p0.i64(ptr noundef nonnull align 8 dereferenceable(16) %28, ptr noundef nonnull align 8 dereferenceable(16) %2, i64 16, i1 false), !tbaa.struct !219
  %29 = getelementptr inbounds nuw i8, ptr %11, i64 32
  %30 = getelementptr inbounds nuw i8, ptr %11, i64 40
  store ptr null, ptr %30, align 8, !tbaa !169
  %31 = getelementptr inbounds nuw i8, ptr %11, i64 48
  store i32 0, ptr %29, align 8
  store ptr %10, ptr %31, align 8, !tbaa !179
  %32 = getelementptr inbounds nuw i8, ptr %11, i64 56
  store i8 0, ptr %32, align 8, !tbaa !178
  %33 = getelementptr inbounds nuw i8, ptr %11, i64 64
  store i64 0, ptr %33, align 8
  store i8 %25, ptr %29, align 8, !tbaa !217
  %34 = getelementptr inbounds nuw i8, ptr %11, i64 34
  store i8 %26, ptr %34, align 2, !tbaa !215
  %35 = getelementptr inbounds nuw i8, ptr %11, i64 35
  store i8 %27, ptr %35, align 1, !tbaa !216
  %36 = getelementptr inbounds nuw i8, ptr %11, i64 72
  store ptr %8, ptr %36, align 8, !tbaa !176
  %37 = invoke noundef zeroext i1 @_ZN10duckdb_re23DFA13AnalyzeSearchEPNS0_12SearchParamsE(ptr noundef nonnull align 8 dereferenceable(296) %0, ptr noundef nonnull %11)
          to label %38 unwind label %40

38:                                               ; preds = %_ZN10duckdb_re23DFA8RWLockerC2EPNS_5MutexE.exit
  br i1 %37, label %42, label %39

39:                                               ; preds = %38
  store i8 1, ptr %6, align 1, !tbaa !3
  br label %78

40:                                               ; preds = %_ZN10duckdb_re23DFA8RWLockerC2EPNS_5MutexE.exit
  %41 = landingpad { ptr, i32 }
          cleanup
  br label %79

42:                                               ; preds = %38
  %43 = load ptr, ptr %30, align 8, !tbaa !169
  %magicptr = ptrtoint ptr %43 to i64
  switch i64 %magicptr, label %49 [
    i64 1, label %78
    i64 2, label %44
  ]

44:                                               ; preds = %42
  %45 = xor i1 %4, %5
  %46 = load ptr, ptr %1, align 8
  %47 = getelementptr inbounds nuw i8, ptr %1, i64 8
  %48 = load i64, ptr %47, align 8
  %storemerge.idx = select i1 %45, i64 %48, i64 0
  %storemerge = getelementptr inbounds nuw i8, ptr %46, i64 %storemerge.idx
  store ptr %storemerge, ptr %7, align 8, !tbaa !218
  br label %78

49:                                               ; preds = %42
  %50 = getelementptr inbounds nuw i8, ptr %11, i64 33
  %51 = load i8, ptr %50, align 1, !tbaa !214, !range !117, !noundef !118
  %52 = shl nuw nsw i8 %51, 2
  %53 = load i8, ptr %34, align 2, !tbaa !215, !range !117, !noundef !118
  %54 = shl nuw nsw i8 %53, 1
  %55 = or disjoint i8 %54, %52
  %56 = load i8, ptr %35, align 1, !tbaa !216, !range !117, !noundef !118
  %57 = or disjoint i8 %55, %56
  %58 = zext nneg i8 %57 to i64
  %59 = getelementptr inbounds nuw [8 x { i64, i64 }], ptr @_ZZN10duckdb_re23DFA14FastSearchLoopEPNS0_12SearchParamsEE8Searches, i64 0, i64 %58
  %.unpack.i = load i64, ptr %59, align 16, !tbaa !104
  %60 = and i64 %.unpack.i, 1
  %.not.i = icmp eq i64 %60, 0
  br i1 %.not.i, label %66, label %61

61:                                               ; preds = %49
  %62 = load ptr, ptr %0, align 8, !tbaa !143
  %63 = getelementptr i8, ptr %62, i64 %.unpack.i
  %64 = getelementptr i8, ptr %63, i64 -1
  %65 = load ptr, ptr %64, align 8, !nosanitize !118
  br label %68

66:                                               ; preds = %49
  %67 = inttoptr i64 %.unpack.i to ptr
  br label %68

68:                                               ; preds = %66, %61
  %69 = phi ptr [ %65, %61 ], [ %67, %66 ]
  %70 = invoke noundef zeroext i1 %69(ptr noundef nonnull align 8 dereferenceable(296) %0, ptr noundef nonnull %11)
          to label %_ZN10duckdb_re23DFA14FastSearchLoopEPNS0_12SearchParamsE.exit unwind label %74

_ZN10duckdb_re23DFA14FastSearchLoopEPNS0_12SearchParamsE.exit: ; preds = %68
  %71 = load i8, ptr %32, align 8, !tbaa !178, !range !117, !noundef !118
  %72 = trunc nuw i8 %71 to i1
  br i1 %72, label %73, label %76

73:                                               ; preds = %_ZN10duckdb_re23DFA14FastSearchLoopEPNS0_12SearchParamsE.exit
  store i8 1, ptr %6, align 1, !tbaa !3
  br label %78

74:                                               ; preds = %68
  %75 = landingpad { ptr, i32 }
          cleanup
  br label %79

76:                                               ; preds = %_ZN10duckdb_re23DFA14FastSearchLoopEPNS0_12SearchParamsE.exit
  %77 = load ptr, ptr %33, align 8, !tbaa !180
  store ptr %77, ptr %7, align 8, !tbaa !218
  br label %78

78:                                               ; preds = %73, %76, %42, %44, %39
  %.1 = phi i1 [ true, %44 ], [ false, %39 ], [ false, %42 ], [ false, %73 ], [ %70, %76 ]
  call void @llvm.lifetime.end.p0(i64 80, ptr nonnull %11) #20
  call void @_ZN10duckdb_re23DFA8RWLockerD2Ev(ptr noundef nonnull align 8 dereferenceable(9) %10) #20
  call void @llvm.lifetime.end.p0(i64 16, ptr nonnull %10) #20
  br label %80

79:                                               ; preds = %74, %40
  %.pn = phi { ptr, i32 } [ %75, %74 ], [ %41, %40 ]
  call void @llvm.lifetime.end.p0(i64 80, ptr nonnull %11) #20
  call void @_ZN10duckdb_re23DFA8RWLockerD2Ev(ptr noundef nonnull align 8 dereferenceable(9) %10) #20
  call void @llvm.lifetime.end.p0(i64 16, ptr nonnull %10) #20
  br label %common.resume

80:                                               ; preds = %78, %15
  %.0 = phi i1 [ %.1, %78 ], [ false, %15 ]
  ret i1 %.0
}